; Function Attrs: mustprogress nounwind uwtable
define internal void @_ZN7rocksdb12_GLOBAL__N_121CountedSequentialFileD2Ev(ptr noundef nonnull align 8 captures(none) dereferenceable(32) initializes((0, 8)) %0) unnamed_addr #3 align 2 personality ptr @__gxx_personality_v0 {
  store ptr getelementptr inbounds nuw inrange(-16, 72) (i8, ptr @_ZTVN7rocksdb12_GLOBAL__N_121CountedSequentialFileE, i64 16), ptr %0, align 8, !tbaa !4
  %2 = getelementptr inbounds nuw i8, ptr %0, i64 24
  %3 = load ptr, ptr %2, align 8, !tbaa !79
  %4 = getelementptr inbounds nuw i8, ptr %3, i64 52
  %5 = atomicrmw add ptr %4, i32 1 seq_cst, align 4
  store ptr getelementptr inbounds nuw inrange(-16, 72) (i8, ptr @_ZTVN7rocksdb28FSSequentialFileOwnerWrapperE, i64 16), ptr %0, align 8, !tbaa !4
  %6 = getelementptr inbounds nuw i8, ptr %0, i64 16
  %7 = load ptr, ptr %6, align 8, !tbaa !78
  %.not.i.i = icmp eq ptr %7, null
  br i1 %.not.i.i, label %_ZN7rocksdb28FSSequentialFileOwnerWrapperD2Ev.exit, label %_ZNKSt14default_deleteIN7rocksdb16FSSequentialFileEEclEPS1_.exit.i.i

_ZNKSt14default_deleteIN7rocksdb16FSSequentialFileEEclEPS1_.exit.i.i: ; preds = %1
  %8 = load ptr, ptr %7, align 8, !tbaa !4
  %9 = getelementptr inbounds nuw i8, ptr %8, i64 8
  %10 = load ptr, ptr %9, align 8
  tail call void %10(ptr noundef nonnull align 8 dereferenceable(8) %7) #17
  br label %_ZN7rocksdb28FSSequentialFileOwnerWrapperD2Ev.exit

_ZN7rocksdb28FSSequentialFileOwnerWrapperD2Ev.exit: ; preds = %1, %_ZNKSt14default_deleteIN7rocksdb16FSSequentialFileEEclEPS1_.exit.i.i
  store ptr null, ptr %6, align 8, !tbaa !78
  ret void
}